target datalayout = "e-m:e-p270:32:32-p271:32:32-p272:64:64-i64:64-i128:128-f80:128-n8:16:32:64-S128"
target triple = "x86_64-pc-linux-gnu"

@.str = private unnamed_addr constant [28 x i8] c"msgbox child process failed\00", align 1
@.str.1 = private unnamed_addr constant [38 x i8] c"read from msgbox child process failed\00", align 1

; Function Attrs: nounwind uwtable
define hidden zeroext i1 @X11_ShowMessageBox(ptr noundef %0, ptr noundef %1) #0 {
  %3 = alloca i1, align 1
  %4 = alloca ptr, align 8
  %5 = alloca ptr, align 8
  %6 = alloca i32, align 4
  %7 = alloca [2 x i32], align 4
  %8 = alloca i32, align 4
  %9 = alloca i8, align 1
  %10 = alloca i32, align 4
  %11 = alloca i32, align 4
  %12 = alloca i32, align 4
  store ptr %0, ptr %4, align 8
  store ptr %1, ptr %5, align 8
  call void @llvm.lifetime.start.p0(i64 4, ptr %6) #8
  call void @llvm.lifetime.start.p0(i64 8, ptr %7) #8
  call void @llvm.lifetime.start.p0(i64 4, ptr %8) #8
  store i32 0, ptr %8, align 4
  call void @llvm.lifetime.start.p0(i64 1, ptr %9) #8
  store i8 1, ptr %9, align 1
  %13 = getelementptr inbounds [2 x i32], ptr %7, i64 0, i64 0
  %14 = call i32 @pipe(ptr noundef %13) #8
  %15 = icmp eq i32 %14, -1
  br i1 %15, label %16, label %20

16:                                               ; preds = %2
  %17 = load ptr, ptr %4, align 8
  %18 = load ptr, ptr %5, align 8
  %19 = call zeroext i1 @X11_ShowMessageBoxImpl(ptr noundef %17, ptr noundef %18)
  store i1 %19, ptr %3, align 1
  store i32 1, ptr %10, align 4
  br label %119

20:                                               ; preds = %2
  %21 = call i32 @fork() #8
  store i32 %21, ptr %6, align 4
  %22 = load i32, ptr %6, align 4
  %23 = icmp eq i32 %22, -1
  br i1 %23, label %24, label %34

24:                                               ; preds = %20
  %25 = getelementptr inbounds [2 x i32], ptr %7, i64 0, i64 0
  %26 = load i32, ptr %25, align 4
  %27 = call i32 @close(i32 noundef %26)
  %28 = getelementptr inbounds [2 x i32], ptr %7, i64 0, i64 1
  %29 = load i32, ptr %28, align 4
  %30 = call i32 @close(i32 noundef %29)
  %31 = load ptr, ptr %4, align 8
  %32 = load ptr, ptr %5, align 8
  %33 = call zeroext i1 @X11_ShowMessageBoxImpl(ptr noundef %31, ptr noundef %32)
  store i1 %33, ptr %3, align 1
  store i32 1, ptr %10, align 4
  br label %119

34:                                               ; preds = %20
  %35 = load i32, ptr %6, align 4
  %36 = icmp eq i32 %35, 0
  br i1 %36, label %37, label %63

37:                                               ; preds = %34
  call void @llvm.lifetime.start.p0(i64 4, ptr %11) #8
  store i32 0, ptr %11, align 4
  %38 = getelementptr inbounds [2 x i32], ptr %7, i64 0, i64 0
  %39 = load i32, ptr %38, align 4
  %40 = call i32 @close(i32 noundef %39)
  %41 = load ptr, ptr %4, align 8
  %42 = load ptr, ptr %5, align 8
  %43 = call zeroext i1 @X11_ShowMessageBoxImpl(ptr noundef %41, ptr noundef %42)
  %44 = zext i1 %43 to i8
  store i8 %44, ptr %9, align 1
  %45 = getelementptr inbounds [2 x i32], ptr %7, i64 0, i64 1
  %46 = load i32, ptr %45, align 4
  %47 = call i64 @write(i32 noundef %46, ptr noundef %9, i64 noundef 1)
  %48 = icmp ne i64 %47, 1
  br i1 %48, label %49, label %50

49:                                               ; preds = %37
  store i32 1, ptr %11, align 4
  br label %58

50:                                               ; preds = %37
  %51 = getelementptr inbounds [2 x i32], ptr %7, i64 0, i64 1
  %52 = load i32, ptr %51, align 4
  %53 = load ptr, ptr %5, align 8
  %54 = call i64 @write(i32 noundef %52, ptr noundef %53, i64 noundef 4)
  %55 = icmp ne i64 %54, 4
  br i1 %55, label %56, label %57

56:                                               ; preds = %50
  store i32 1, ptr %11, align 4
  br label %57

57:                                               ; preds = %56, %50
  br label %58

58:                                               ; preds = %57, %49
  %59 = getelementptr inbounds [2 x i32], ptr %7, i64 0, i64 1
  %60 = load i32, ptr %59, align 4
  %61 = call i32 @close(i32 noundef %60)
  %62 = load i32, ptr %11, align 4
  call void @_exit(i32 noundef %62) #9
  unreachable

63:                                               ; preds = %34
  call void @llvm.lifetime.start.p0(i64 4, ptr %12) #8
  %64 = getelementptr inbounds [2 x i32], ptr %7, i64 0, i64 1
  %65 = load i32, ptr %64, align 4
  %66 = call i32 @close(i32 noundef %65)
  br label %67

67:                                               ; preds = %77, %63
  %68 = load i32, ptr %6, align 4
  %69 = call i32 @waitpid(i32 noundef %68, ptr noundef %8, i32 noundef 0)
  store i32 %69, ptr %12, align 4
  br label %70

70:                                               ; preds = %67
  %71 = load i32, ptr %12, align 4
  %72 = icmp eq i32 %71, -1
  br i1 %72, label %73, label %77

73:                                               ; preds = %70
  %74 = call ptr @__errno_location() #10
  %75 = load i32, ptr %74, align 4
  %76 = icmp eq i32 %75, 4
  br label %77

77:                                               ; preds = %73, %70
  %78 = phi i1 [ false, %70 ], [ %76, %73 ]
  br i1 %78, label %67, label %79, !llvm.loop !3

79:                                               ; preds = %77
  br label %80

80:                                               ; preds = %79
  br label %81

81:                                               ; preds = %80
  br label %82

82:                                               ; preds = %81
  %83 = load i32, ptr %12, align 4
  %84 = icmp eq i32 %83, -1
  br i1 %84, label %94, label %85

85:                                               ; preds = %82
  %86 = load i32, ptr %8, align 4
  %87 = and i32 %86, 127
  %88 = icmp eq i32 %87, 0
  br i1 %88, label %89, label %94

89:                                               ; preds = %85
  %90 = load i32, ptr %8, align 4
  %91 = and i32 %90, 65280
  %92 = ashr i32 %91, 8
  %93 = icmp ne i32 %92, 0
  br i1 %93, label %94, label %97

94:                                               ; preds = %89, %85, %82
  %95 = call zeroext i1 (ptr, ...) @SDL_SetError_REAL(ptr noundef @.str)
  %96 = zext i1 %95 to i8
  store i8 %96, ptr %9, align 1
  br label %113

97:                                               ; preds = %89
  %98 = getelementptr inbounds [2 x i32], ptr %7, i64 0, i64 0
  %99 = load i32, ptr %98, align 4
  %100 = call i64 @read(i32 noundef %99, ptr noundef %9, i64 noundef 1)
  %101 = icmp ne i64 %100, 1
  br i1 %101, label %108, label %102

102:                                              ; preds = %97
  %103 = getelementptr inbounds [2 x i32], ptr %7, i64 0, i64 0
  %104 = load i32, ptr %103, align 4
  %105 = load ptr, ptr %5, align 8
  %106 = call i64 @read(i32 noundef %104, ptr noundef %105, i64 noundef 4)
  %107 = icmp ne i64 %106, 4
  br i1 %107, label %108, label %112

108:                                              ; preds = %102, %97
  %109 = call zeroext i1 (ptr, ...) @SDL_SetError_REAL(ptr noundef @.str.1)
  %110 = zext i1 %109 to i8
  store i8 %110, ptr %9, align 1
  %111 = load ptr, ptr %5, align 8
  store i32 0, ptr %111, align 4
  br label %112

112:                                              ; preds = %108, %102
  br label %113

113:                                              ; preds = %112, %94
  %114 = getelementptr inbounds [2 x i32], ptr %7, i64 0, i64 0
  %115 = load i32, ptr %114, align 4
  %116 = call i32 @close(i32 noundef %115)
  %117 = load i8, ptr %9, align 1, !range !5, !noundef !6
  %118 = trunc i8 %117 to i1
  store i1 %118, ptr %3, align 1
  store i32 1, ptr %10, align 4
  call void @llvm.lifetime.end.p0(i64 4, ptr %12) #8
  br label %119

119:                                              ; preds = %113, %24, %16
  call void @llvm.lifetime.end.p0(i64 1, ptr %9) #8
  call void @llvm.lifetime.end.p0(i64 4, ptr %8) #8
  call void @llvm.lifetime.end.p0(i64 8, ptr %7) #8
  call void @llvm.lifetime.end.p0(i64 4, ptr %6) #8
  %120 = load i1, ptr %3, align 1
  ret i1 %120
}