; Function Attrs: nounwind uwtable
define hidden zeroext i1 @X11_ShowMessageBox(ptr noundef %0, ptr noundef %1) local_unnamed_addr #0 {
  %3 = alloca [2 x i32], align 4
  %4 = alloca i32, align 4
  %5 = alloca i8, align 1
  call void @llvm.lifetime.start.p0(i64 8, ptr nonnull %3) #11
  call void @llvm.lifetime.start.p0(i64 4, ptr nonnull %4) #11
  store i32 0, ptr %4, align 4
  call void @llvm.lifetime.start.p0(i64 1, ptr nonnull %5) #11
  store i8 1, ptr %5, align 1
  %6 = call i32 @pipe(ptr noundef nonnull %3) #11
  %7 = icmp eq i32 %6, -1
  br i1 %7, label %8, label %10

8:                                                ; preds = %2
  %9 = call fastcc zeroext i1 @X11_ShowMessageBoxImpl(ptr noundef %0, ptr noundef %1)
  br label %60

10:                                               ; preds = %2
  %11 = call i32 @fork() #11
  switch i32 %11, label %33 [
    i32 -1, label %12
    i32 0, label %19
  ]

12:                                               ; preds = %10
  %13 = load i32, ptr %3, align 4
  %14 = call i32 @close(i32 noundef %13) #11
  %15 = getelementptr inbounds nuw i8, ptr %3, i64 4
  %16 = load i32, ptr %15, align 4
  %17 = call i32 @close(i32 noundef %16) #11
  %18 = call fastcc zeroext i1 @X11_ShowMessageBoxImpl(ptr noundef %0, ptr noundef %1)
  br label %60

19:                                               ; preds = %10
  %20 = load i32, ptr %3, align 4
  %21 = call i32 @close(i32 noundef %20) #11
  %22 = call fastcc zeroext i1 @X11_ShowMessageBoxImpl(ptr noundef %0, ptr noundef %1)
  %23 = zext i1 %22 to i8
  store i8 %23, ptr %5, align 1
  %24 = getelementptr inbounds nuw i8, ptr %3, i64 4
  %25 = load i32, ptr %24, align 4
  %26 = call i64 @write(i32 noundef %25, ptr noundef nonnull %5, i64 noundef 1) #11
  %.not19 = icmp eq i64 %26, 1
  br i1 %.not19, label %27, label %30

27:                                               ; preds = %19
  %28 = load i32, ptr %24, align 4
  %29 = call i64 @write(i32 noundef %28, ptr noundef %1, i64 noundef 4) #11
  %.not20 = icmp ne i64 %29, 4
  %spec.select = zext i1 %.not20 to i32
  br label %30

30:                                               ; preds = %27, %19
  %.015 = phi i32 [ 1, %19 ], [ %spec.select, %27 ]
  %31 = load i32, ptr %24, align 4
  %32 = call i32 @close(i32 noundef %31) #11
  call void @_exit(i32 noundef %.015) #12
  unreachable

33:                                               ; preds = %10
  %34 = getelementptr inbounds nuw i8, ptr %3, i64 4
  %35 = load i32, ptr %34, align 4
  %36 = call i32 @close(i32 noundef %35) #11
  br label %37

37:                                               ; preds = %40, %33
  %38 = call i32 @waitpid(i32 noundef %11, ptr noundef nonnull %4, i32 noundef 0) #11
  %39 = icmp eq i32 %38, -1
  br i1 %39, label %40, label %.critedge21

40:                                               ; preds = %37
  %41 = tail call ptr @__errno_location() #13
  %42 = load i32, ptr %41, align 4
  %43 = icmp eq i32 %42, 4
  br i1 %43, label %37, label %.critedge, !llvm.loop !3

.critedge21:                                      ; preds = %37
  %44 = load i32, ptr %4, align 4
  %45 = and i32 %44, 65407
  %or.cond = icmp eq i32 %45, 0
  br i1 %or.cond, label %47, label %.critedge

.critedge:                                        ; preds = %40, %.critedge21
  %46 = call zeroext i1 (ptr, ...) @SDL_SetError_REAL(ptr noundef nonnull @.str) #11
  br label %56

47:                                               ; preds = %.critedge21
  %48 = load i32, ptr %3, align 4
  %49 = call i64 @read(i32 noundef %48, ptr noundef nonnull %5, i64 noundef 1) #11
  %.not17 = icmp eq i64 %49, 1
  br i1 %.not17, label %50, label %54

50:                                               ; preds = %47
  %51 = load i32, ptr %3, align 4
  %52 = call i64 @read(i32 noundef %51, ptr noundef %1, i64 noundef 4) #11
  %.not18 = icmp eq i64 %52, 4
  br i1 %.not18, label %._crit_edge, label %54

._crit_edge:                                      ; preds = %50
  %.pre = load i8, ptr %5, align 1, !range !5
  %53 = trunc nuw i8 %.pre to i1
  br label %56

54:                                               ; preds = %50, %47
  %55 = call zeroext i1 (ptr, ...) @SDL_SetError_REAL(ptr noundef nonnull @.str.1) #11
  store i32 0, ptr %1, align 4
  br label %56

56:                                               ; preds = %._crit_edge, %54, %.critedge
  %57 = phi i1 [ %53, %._crit_edge ], [ %55, %54 ], [ %46, %.critedge ]
  %58 = load i32, ptr %3, align 4
  %59 = call i32 @close(i32 noundef %58) #11
  br label %60

60:                                               ; preds = %56, %12, %8
  %.0 = phi i1 [ %9, %8 ], [ %18, %12 ], [ %57, %56 ]
  call void @llvm.lifetime.end.p0(i64 1, ptr nonnull %5) #11
  call void @llvm.lifetime.end.p0(i64 4, ptr nonnull %4) #11
  call void @llvm.lifetime.end.p0(i64 8, ptr nonnull %3) #11
  ret i1 %.0
}